; Function Attrs: mustprogress nofree nounwind willreturn memory(write, argmem: readwrite) uwtable
define noundef double @_ZN32pxrInternal_v0_24__pxrReserved__9GfFrustum6GetFOVEb(ptr nocapture noundef nonnull readonly align 8 dereferenceable(128) %0, i1 noundef zeroext %1) local_unnamed_addr #7 align 2 {
  %3 = getelementptr inbounds nuw i8, ptr %0, i64 112
  %4 = load i32, ptr %3, align 8
  %5 = icmp eq i32 %4, 1
  br i1 %5, label %_ZNK32pxrInternal_v0_24__pxrReserved__9GfFrustum14GetPerspectiveEbPdS1_S1_S1_.exit, label %15

_ZNK32pxrInternal_v0_24__pxrReserved__9GfFrustum14GetPerspectiveEbPdS1_S1_S1_.exit: ; preds = %2
  %6 = getelementptr inbounds nuw i8, ptr %0, i64 56
  %7 = getelementptr inbounds i8, ptr %0, i64 72
  %.sroa.0.0.copyload2.i.i.i = load double, ptr %7, align 8
  %.sroa.4.0..sroa_idx.i.i.i = getelementptr inbounds i8, ptr %0, i64 80
  %.sroa.4.0.copyload.i.i.i = load double, ptr %.sroa.4.0..sroa_idx.i.i.i, align 8
  %8 = load double, ptr %6, align 8
  %9 = fsub double %.sroa.0.0.copyload2.i.i.i, %8
  %10 = getelementptr inbounds i8, ptr %0, i64 64
  %11 = load double, ptr %10, align 8
  %12 = fsub double %.sroa.4.0.copyload.i.i.i, %11
  %..i = select i1 %1, double %12, double %9
  %13 = fmul double %..i, 5.000000e-01
  %14 = tail call double @atan(double noundef %13) #24
  %storemerge.in.i = fmul double %14, 0x404CA5DC1A63C1F8
  %storemerge.i = fmul double %storemerge.in.i, 2.000000e+00
  br label %15

15:                                               ; preds = %_ZNK32pxrInternal_v0_24__pxrReserved__9GfFrustum14GetPerspectiveEbPdS1_S1_S1_.exit, %2
  %.0 = phi double [ %storemerge.i, %_ZNK32pxrInternal_v0_24__pxrReserved__9GfFrustum14GetPerspectiveEbPdS1_S1_S1_.exit ], [ 0.000000e+00, %2 ]
  ret double %.0
}